Certificate:
    Data:
        Version: 3 (0x2)
        Serial Number:
            16:b3:71:f7:f9:8d:53:42:b5:4f:c4:d6:d0:99:a2:f0:3f:0e:69:9d
        Signature Algorithm: sha256WithRSAEncryption
        Issuer: C=SV, ST=Santa Ana, O=Protocolos de Comunicacion, OU=EDKD, CN=pdc135
        Validity
            Not Before: Jun 15 00:36:14 2020 GMT
            Not After : Jun 15 00:36:14 2021 GMT
        Subject: C=SV, ST=Santa Ana, L=Santa Ana, O=Panes Chucos, OU=PDC, CN=mail.paneschucos.occ.ues.edu.sv/emailAddress=mb15004@ues.edu.sv
        Subject Public Key Info:
            Public Key Algorithm: rsaEncryption
                RSA Public-Key: (4096 bit)
                Modulus:
                    00:99:e9:f2:f9:66:c8:6d:e7:ba:64:7f:d6:77:cc:
                    ed:a3:86:e6:d8:d5:b7:be:f1:f5:ca:6a:94:3d:fa:
                    45:6a:f5:d6:52:49:a0:fd:ec:44:60:15:98:32:ac:
                    1b:eb:7b:a5:76:4b:24:56:c9:30:52:84:7d:0b:0e:
                    78:f9:8c:d8:c2:92:ec:e3:2b:c4:5a:ff:44:4d:56:
                    31:08:2a:c7:7e:2c:b9:a5:46:af:57:10:fe:fc:d3:
                    08:58:b5:0d:08:80:09:c0:5a:16:b7:44:45:83:45:
                    cb:da:78:02:40:c3:88:0d:81:dc:e5:e9:87:9d:2c:
                    7c:6c:83:61:fe:c7:67:1c:67:72:60:09:02:29:9a:
                    3f:af:4b:c2:0f:27:02:fa:91:c8:46:7e:f1:58:b8:
                    77:3f:3e:97:df:9a:32:bd:fe:db:c9:f9:c8:7b:5c:
                    38:2f:56:81:84:00:23:75:2d:3a:7e:c6:da:91:b5:
                    f9:2c:1a:d7:97:57:28:40:4d:4e:f8:79:b5:45:5f:
                    3d:6b:11:e5:56:e1:53:02:ea:c9:67:0a:87:90:87:
                    6e:a5:dd:43:4e:89:28:19:d8:9a:44:5f:18:84:53:
                    3e:a5:7b:7d:28:19:c5:29:cb:7a:e4:96:74:b7:3f:
                    e1:fa:50:d0:a7:5f:a7:12:c0:88:6a:77:49:b9:a3:
                    9c:7a:be:e1:f9:2b:a1:d9:63:49:b9:77:0d:6f:5e:
                    7f:e5:80:28:79:df:e7:dd:e7:ad:1a:56:90:b0:c4:
                    2d:15:15:69:79:92:94:66:1e:0b:4d:e8:f1:ac:aa:
                    12:59:37:b2:04:90:64:d3:c2:86:fd:26:ef:65:da:
                    e8:29:de:e4:5e:ad:83:2d:c2:a7:65:01:29:71:be:
                    23:dd:c2:ec:7e:ce:35:f9:45:ce:8d:a8:f8:ea:58:
                    2c:20:4b:20:9f:a0:7d:c1:7f:16:63:92:f5:2d:90:
                    bb:81:5b:9c:39:93:cd:05:fa:fc:52:ed:86:aa:89:
                    90:9e:b6:4f:8c:4f:af:18:ae:c0:25:83:1c:63:ae:
                    b8:96:07:08:41:a5:d3:0b:1e:c0:cc:c7:fd:01:7b:
                    5f:ba:3e:57:44:ac:94:c4:89:39:e2:e3:49:83:97:
                    83:d4:5f:70:71:ef:85:4b:c0:c8:dd:43:71:cd:2c:
                    37:09:b9:13:58:3a:f4:cd:6b:33:7d:9b:f3:d1:85:
                    df:ba:de:3d:bd:99:06:96:56:3f:0c:17:ea:8c:71:
                    23:b3:3d:87:c8:ed:80:0c:ec:4b:c6:c8:ae:41:ba:
                    c5:f6:f2:b4:63:e6:0c:d5:2c:35:92:24:c7:6d:be:
                    98:a2:89:21:ce:5f:80:63:b0:4d:2b:3f:11:b9:8a:
                    5a:6a:6f
                Exponent: 65537 (0x10001)
        X509v3 extensions:
            X509v3 Basic Constraints: 
                CA:FALSE
            Netscape Comment: 
                OpenSSL Generated Certificate
            X509v3 Subject Key Identifier: 
                9E:E6:56:7F:BE:3E:DC:9A:0D:60:3F:C1:6E:30:A5:50:D9:B3:F2:14
            X509v3 Authority Key Identifier: 
                keyid:59:06:95:7E:BA:66:D6:A1:F1:3C:75:2C:17:2C:57:BF:01:E3:96:16

    Signature Algorithm: sha256WithRSAEncryption
         8d:97:66:da:d3:3d:05:04:4a:dc:87:20:5c:6c:4a:24:9f:a1:
         6f:ab:74:da:1d:0d:ca:b2:71:ed:df:f3:76:27:f3:46:93:df:
         8a:ab:b7:b2:2b:d3:04:b9:80:c0:6b:cf:0b:15:03:eb:d9:8b:
         0c:7d:32:40:cd:1b:e3:24:ce:e0:d4:14:78:b8:a7:48:d7:83:
         d7:39:a3:ed:bb:fa:16:d2:3c:3b:d7:bf:83:61:3f:91:f1:48:
         1a:0b:16:f9:4d:5a:26:0d:53:a7:6e:f6:a2:b6:ff:b8:f2:e3:
         eb:f3:bf:d9:f4:fc:6e:ef:a5:56:b7:f5:91:ff:f6:fc:e4:a1:
         36:53:74:29:12:b9:51:ac:dc:1d:51:20:ae:7d:da:8b:6e:1e:
         8d:37:92:41:c0:b0:af:24:3e:d6:67:bb:0c:3e:39:ec:14:38:
         f6:1d:5e:fe:c7:6f:bb:41:5d:29:e2:64:98:2d:6f:e0:f1:ff:
         17:1b:b5:7e:ff:70:71:5f:bf:16:de:5d:43:3a:d3:ac:fd:83:
         f6:10:50:2b:c3:e9:86:13:2f:1a:fa:4f:ff:90:69:dc:f7:de:
         7f:ef:56:ac:d3:c7:1a:7b:df:d5:84:50:14:c1:d3:32:5d:2e:
         d9:5e:6d:8b:b6:f4:14:9f:0a:1c:09:3f:7e:d7:7e:a5:99:f4:
         97:e1:94:f7:e7:91:7c:fc:5a:28:43:23:29:d1:2c:0e:f2:f9:
         89:a1:bf:ea:ba:b1:c1:16:42:2e:a2:5f:23:8d:bd:b4:7f:98:
         fa:17:a6:52:c8:aa:c0:92:f7:37:64:f9:b8:20:a8:42:21:d9:
         3a:2b:1b:d6:b6:d8:40:21:98:6b:bf:23:25:a0:19:89:ad:06:
         0a:a4:f9:57:6c:b8:8c:3f:c8:b6:f2:d2:75:b1:93:1a:5a:af:
         c1:d9:2f:69:e3:89:1a:66:f9:21:b3:86:e9:3d:36:d5:32:69:
         a7:cd:6b:50:44:09:ba:6e:90:52:59:03:a4:1a:99:8c:ee:0e:
         51:99:59:4a:b3:77:39:8d:58:c2:31:6f:97:6c:1b:20:5d:01:
         2f:80:25:f3:f2:9c:84:a5:06:b2:1f:0e:bc:55:34:de:73:a1:
         7c:8d:e7:24:96:ce:1b:6f:81:b7:bf:8c:6a:c2:8f:80:4e:f7:
         67:17:f8:0e:ca:65:ae:64:9f:1c:cc:3b:59:77:bd:dc:fb:5d:
         0e:f1:52:0c:16:57:3a:92:e1:1d:f0:6a:1e:a1:4d:0c:83:1c:
         9e:65:2c:90:6c:0d:7c:51:d3:81:82:49:77:ac:05:04:82:62:
         34:2c:db:0d:d2:9e:f6:c5:4a:f9:14:67:42:86:82:61:6c:9f:
         fe:6c:55:ed:6c:31:91:ef
-----BEGIN CERTIFICATE-----
MIIGFzCCA/+gAwIBAgIUFrNx9/mNU0K1T8TW0Jmi8D8OaZ0wDQYJKoZIhvcNAQEL
BQAwZjELMAkGA1UEBhMCU1YxEjAQBgNVBAgMCVNhbnRhIEFuYTEjMCEGA1UECgwa
UHJvdG9jb2xvcyBkZSBDb211bmljYWNpb24xDTALBgNVBAsMBEVES0QxDzANBgNV
BAMMBnBkYzEzNTAeFw0yMDA2MTUwMDM2MTRaFw0yMTA2MTUwMDM2MTRaMIGnMQsw
CQYDVQQGEwJTVjESMBAGA1UECAwJU2FudGEgQW5hMRIwEAYDVQQHDAlTYW50YSBB
bmExFTATBgNVBAoMDFBhbmVzIENodWNvczEMMAoGA1UECwwDUERDMSgwJgYDVQQD
DB9tYWlsLnBhbmVzY2h1Y29zLm9jYy51ZXMuZWR1LnN2MSEwHwYJKoZIhvcNAQkB
FhJtYjE1MDA0QHVlcy5lZHUuc3YwggIiMA0GCSqGSIb3DQEBAQUAA4ICDwAwggIK
AoICAQCZ6fL5Zsht57pkf9Z3zO2jhubY1be+8fXKapQ9+kVq9dZSSaD97ERgFZgy
rBvre6V2SyRWyTBShH0LDnj5jNjCkuzjK8Ra/0RNVjEIKsd+LLmlRq9XEP780whY
tQ0IgAnAWha3REWDRcvaeAJAw4gNgdzl6YedLHxsg2H+x2ccZ3JgCQIpmj+vS8IP
JwL6kchGfvFYuHc/PpffmjK9/tvJ+ch7XDgvVoGEACN1LTp+xtqRtfksGteXVyhA
TU74ebVFXz1rEeVW4VMC6slnCoeQh26l3UNOiSgZ2JpEXxiEUz6le30oGcUpy3rk
lnS3P+H6UNCnX6cSwIhqd0m5o5x6vuH5K6HZY0m5dw1vXn/lgCh53+fd560aVpCw
xC0VFWl5kpRmHgtN6PGsqhJZN7IEkGTTwob9Ju9l2ugp3uRerYMtwqdlASlxviPd
wux+zjX5Rc6NqPjqWCwgSyCfoH3BfxZjkvUtkLuBW5w5k80F+vxS7YaqiZCetk+M
T68YrsAlgxxjrriWBwhBpdMLHsDMx/0Be1+6PldErJTEiTni40mDl4PUX3Bx74VL
wMjdQ3HNLDcJuRNYOvTNazN9m/PRhd+63j29mQaWVj8MF+qMcSOzPYfI7YAM7EvG
yK5BusX28rRj5gzVLDWSJMdtvpiiiSHOX4BjsE0rPxG5ilpqbwIDAQABo3sweTAJ
BgNVHRMEAjAAMCwGCWCGSAGG+EIBDQQfFh1PcGVuU1NMIEdlbmVyYXRlZCBDZXJ0
aWZpY2F0ZTAdBgNVHQ4EFgQUnuZWf74+3JoNYD/BbjClUNmz8hQwHwYDVR0jBBgw
FoAUWQaVfrpm1qHxPHUsFyxXvwHjlhYwDQYJKoZIhvcNAQELBQADggIBAI2XZtrT
PQUEStyHIFxsSiSfoW+rdNodDcqyce3f83Yn80aT34qrt7Ir0wS5gMBrzwsVA+vZ
iwx9MkDNG+MkzuDUFHi4p0jXg9c5o+27+hbSPDvXv4NhP5HxSBoLFvlNWiYNU6du
9qK2/7jy4+vzv9n0/G7vpVa39ZH/9vzkoTZTdCkSuVGs3B1RIK592otuHo03kkHA
sK8kPtZnuww+OewUOPYdXv7Hb7tBXSniZJgtb+Dx/xcbtX7/cHFfvxbeXUM606z9
g/YQUCvD6YYTLxr6T/+Qadz33n/vVqzTxxp739WEUBTB0zJdLtlebYu29BSfChwJ
P37XfqWZ9JfhlPfnkXz8WihDIynRLA7y+Ymhv+q6scEWQi6iXyONvbR/mPoXplLI
qsCS9zdk+bggqEIh2TorG9a22EAhmGu/IyWgGYmtBgqk+VdsuIw/yLby0nWxkxpa
r8HZL2njiRpm+SGzhuk9NtUyaafNa1BECbpukFJZA6QamYzuDlGZWUqzdzmNWMIx
b5dsGyBdAS+AJfPynISlBrIfDrxVNN5zoXyN5ySWzhtvgbe/jGrCj4BO92cX+A7K
Za5knxzMO1l3vdz7XQ7xUgwWVzqS4R3wah6hTQyDHJ5lLJBsDXxR04GCSXesBQSC
YjQs2w3SnvbFSvkUZ0KGgmFsn/5sVe1sMZHv
-----END CERTIFICATE-----
